target datalayout = "e-m:e-p270:32:32-p271:32:32-p272:64:64-i64:64-i128:128-f80:128-n8:16:32:64-S128"
target triple = "x86_64-pc-linux-gnu"

%struct.TableFuncScanState = type { %struct.ScanState, ptr, ptr, ptr, ptr, ptr, ptr, ptr, ptr, ptr, ptr, ptr, ptr, ptr, i64, ptr, ptr }
%struct.ScanState = type { %struct.PlanState, ptr, ptr, ptr }
%struct.PlanState = type { i32, ptr, ptr, ptr, ptr, ptr, ptr, ptr, ptr, ptr, ptr, ptr, ptr, ptr, ptr, ptr, ptr, ptr, i8, ptr, ptr, ptr, ptr, ptr, i8, i8, i8, i8, i8, i8, i8, i8 }

; Function Attrs: nounwind uwtable
define internal ptr @TableFuncNext(ptr noundef %0) #0 {
  %2 = alloca ptr, align 8
  %3 = alloca ptr, align 8
  store ptr %0, ptr %2, align 8
  call void @llvm.lifetime.start.p0(i64 8, ptr %3) #9
  %4 = load ptr, ptr %2, align 8
  %5 = getelementptr inbounds nuw %struct.TableFuncScanState, ptr %4, i32 0, i32 0
  %6 = getelementptr inbounds nuw %struct.ScanState, ptr %5, i32 0, i32 3
  %7 = load ptr, ptr %6, align 8
  store ptr %7, ptr %3, align 8
  %8 = load ptr, ptr %2, align 8
  %9 = getelementptr inbounds nuw %struct.TableFuncScanState, ptr %8, i32 0, i32 16
  %10 = load ptr, ptr %9, align 8
  %11 = icmp eq ptr %10, null
  br i1 %11, label %12, label %19

12:                                               ; preds = %1
  %13 = load ptr, ptr %2, align 8
  %14 = load ptr, ptr %2, align 8
  %15 = getelementptr inbounds nuw %struct.TableFuncScanState, ptr %14, i32 0, i32 0
  %16 = getelementptr inbounds nuw %struct.ScanState, ptr %15, i32 0, i32 0
  %17 = getelementptr inbounds nuw %struct.PlanState, ptr %16, i32 0, i32 16
  %18 = load ptr, ptr %17, align 8
  call void @tfuncFetchRows(ptr noundef %13, ptr noundef %18)
  br label %19

19:                                               ; preds = %12, %1
  %20 = load ptr, ptr %2, align 8
  %21 = getelementptr inbounds nuw %struct.TableFuncScanState, ptr %20, i32 0, i32 16
  %22 = load ptr, ptr %21, align 8
  %23 = load ptr, ptr %3, align 8
  %24 = call zeroext i1 @tuplestore_gettupleslot(ptr noundef %22, i1 noundef zeroext true, i1 noundef zeroext false, ptr noundef %23)
  %25 = load ptr, ptr %3, align 8
  call void @llvm.lifetime.end.p0(i64 8, ptr %3) #9
  ret ptr %25
}