; Function Attrs: nounwind uwtable
define internal ptr @TableFuncNext(ptr noundef %0) #0 {
  %2 = getelementptr inbounds nuw i8, ptr %0, i64 216
  %3 = load ptr, ptr %2, align 8
  %4 = getelementptr inbounds nuw i8, ptr %0, i64 344
  %5 = load ptr, ptr %4, align 8
  %6 = icmp eq ptr %5, null
  br i1 %6, label %7, label %10

7:                                                ; preds = %1
  %8 = getelementptr inbounds nuw i8, ptr %0, i64 128
  %9 = load ptr, ptr %8, align 8
  tail call fastcc void @tfuncFetchRows(ptr noundef nonnull %0, ptr noundef %9)
  %.pre = load ptr, ptr %4, align 8
  br label %10

10:                                               ; preds = %7, %1
  %11 = phi ptr [ %.pre, %7 ], [ %5, %1 ]
  %12 = tail call zeroext i1 @tuplestore_gettupleslot(ptr noundef %11, i1 noundef zeroext true, i1 noundef zeroext false, ptr noundef %3) #8
  ret ptr %3
}